
obj/main.o:     file format elf32-littlearm


Disassembly of section .text:

00000000 <main>:
   0:	b480      	push	{r7}
   2:	b085      	sub	sp, #20
   4:	af00      	add	r7, sp, #0
   6:	4b1c      	ldr	r3, [pc, #112]	; (78 <main+0x78>)
   8:	60fb      	str	r3, [r7, #12]
   a:	4b1c      	ldr	r3, [pc, #112]	; (7c <main+0x7c>)
   c:	60bb      	str	r3, [r7, #8]
   e:	4b1c      	ldr	r3, [pc, #112]	; (80 <main+0x80>)
  10:	607b      	str	r3, [r7, #4]
  12:	68fb      	ldr	r3, [r7, #12]
  14:	681b      	ldr	r3, [r3, #0]
  16:	f043 0208 	orr.w	r2, r3, #8
  1a:	68fb      	ldr	r3, [r7, #12]
  1c:	601a      	str	r2, [r3, #0]
  1e:	68fb      	ldr	r3, [r7, #12]
  20:	3310      	adds	r3, #16
  22:	681a      	ldr	r2, [r3, #0]
  24:	68fb      	ldr	r3, [r7, #12]
  26:	3310      	adds	r3, #16
  28:	f042 0204 	orr.w	r2, r2, #4
  2c:	601a      	str	r2, [r3, #0]
  2e:	68bb      	ldr	r3, [r7, #8]
  30:	f04f 5200 	mov.w	r2, #536870912	; 0x20000000
  34:	601a      	str	r2, [r3, #0]
  36:	68bb      	ldr	r3, [r7, #8]
  38:	3324      	adds	r3, #36	; 0x24
  3a:	f04f 7200 	mov.w	r2, #33554432	; 0x2000000
  3e:	601a      	str	r2, [r3, #0]
  40:	687b      	ldr	r3, [r7, #4]
  42:	331c      	adds	r3, #28
  44:	2260      	movs	r2, #96	; 0x60
  46:	601a      	str	r2, [r3, #0]
  48:	687b      	ldr	r3, [r7, #4]
  4a:	3328      	adds	r3, #40	; 0x28
  4c:	f240 623f 	movw	r2, #1599	; 0x63f
  50:	601a      	str	r2, [r3, #0]
  52:	687b      	ldr	r3, [r7, #4]
  54:	332c      	adds	r3, #44	; 0x2c
  56:	f242 720f 	movw	r2, #9999	; 0x270f
  5a:	601a      	str	r2, [r3, #0]
  5c:	687b      	ldr	r3, [r7, #4]
  5e:	333c      	adds	r3, #60	; 0x3c
  60:	f241 3287 	movw	r2, #4999	; 0x1387
  64:	601a      	str	r2, [r3, #0]
  66:	687b      	ldr	r3, [r7, #4]
  68:	3320      	adds	r3, #32
  6a:	f44f 7280 	mov.w	r2, #256	; 0x100
  6e:	601a      	str	r2, [r3, #0]
  70:	687b      	ldr	r3, [r7, #4]
  72:	2201      	movs	r2, #1
  74:	601a      	str	r2, [r3, #0]
  76:	e7fe      	b.n	76 <main+0x76>
  78:	40023830 	andmi	r3, r2, r0, lsr r8
  7c:	40020c00 	andmi	r0, r2, r0, lsl #24
  80:	40000800 	andmi	r0, r0, r0, lsl #16
