	.cpu cortex-m4
	.arch armv7e-m
	.fpu softvfp
	.eabi_attribute 20, 1
	.eabi_attribute 21, 1
	.eabi_attribute 23, 3
	.eabi_attribute 24, 1
	.eabi_attribute 25, 1
	.eabi_attribute 26, 1
	.eabi_attribute 30, 6
	.eabi_attribute 34, 1
	.eabi_attribute 18, 4
	.file	"stm32_startup.c"
	.text
.Ltext0:
	.cfi_sections	.debug_frame
	.global	vectors
	.section	.isr_vector,"aw"
	.align	2
	.type	vectors, %object
	.size	vectors, 8
vectors:
	.word	537001984
	.word	Reset_Handler
	.text
	.align	1
	.global	Reset_Handler
	.syntax unified
	.thumb
	.thumb_func
	.type	Reset_Handler, %function
Reset_Handler:
.LFB0:
	.file 1 "src/stm32_startup.c"
	.loc 1 49 29
	.cfi_startproc
	@ args = 0, pretend = 0, frame = 24
	@ frame_needed = 1, uses_anonymous_args = 0
	push	{r7, lr}
	.cfi_def_cfa_offset 8
	.cfi_offset 7, -8
	.cfi_offset 14, -4
	sub	sp, sp, #24
	.cfi_def_cfa_offset 32
	add	r7, sp, #0
	.cfi_def_cfa_register 7
	.loc 1 52 24
	ldr	r2, .L6
	.loc 1 52 44
	ldr	r3, .L6+4
	.loc 1 52 11
	subs	r3, r2, r3
	str	r3, [r7, #4]
	.loc 1 57 11
	ldr	r3, .L6+4
	str	r3, [r7, #20]
	.loc 1 58 11
	ldr	r3, .L6+8
	str	r3, [r7, #16]
.LBB2:
	.loc 1 61 16
	movs	r3, #0
	str	r3, [r7, #12]
	.loc 1 61 2
	b	.L2
.L3:
	.loc 1 62 18 discriminator 3
	ldr	r2, [r7, #16]
	adds	r3, r2, #1
	str	r3, [r7, #16]
	.loc 1 62 8 discriminator 3
	ldr	r3, [r7, #20]
	adds	r1, r3, #1
	str	r1, [r7, #20]
	.loc 1 62 13 discriminator 3
	ldrb	r2, [r2]	@ zero_extendqisi2
	.loc 1 62 11 discriminator 3
	strb	r2, [r3]
	.loc 1 61 49 discriminator 3
	ldr	r3, [r7, #12]
	adds	r3, r3, #1
	str	r3, [r7, #12]
.L2:
	.loc 1 61 2 discriminator 1
	ldr	r2, [r7, #12]
	ldr	r3, [r7, #4]
	cmp	r2, r3
	bcc	.L3
.LBE2:
	.loc 1 66 15
	ldr	r2, .L6+12
	.loc 1 66 34
	ldr	r3, .L6+16
	.loc 1 66 13
	subs	r3, r2, r3
	str	r3, [r7, #4]
	.loc 1 69 7
	ldr	r3, .L6+16
	str	r3, [r7, #20]
.LBB3:
	.loc 1 72 16
	movs	r3, #0
	str	r3, [r7, #8]
	.loc 1 72 2
	b	.L4
.L5:
	.loc 1 73 8 discriminator 3
	ldr	r3, [r7, #20]
	adds	r2, r3, #1
	str	r2, [r7, #20]
	.loc 1 73 11 discriminator 3
	movs	r2, #0
	strb	r2, [r3]
	.loc 1 72 49 discriminator 3
	ldr	r3, [r7, #8]
	adds	r3, r3, #1
	str	r3, [r7, #8]
.L4:
	.loc 1 72 2 discriminator 1
	ldr	r2, [r7, #8]
	ldr	r3, [r7, #4]
	cmp	r2, r3
	bcc	.L5
.LBE3:
	.loc 1 81 2
	bl	main
	.loc 1 83 1
	nop
	adds	r7, r7, #24
	.cfi_def_cfa_offset 8
	mov	sp, r7
	.cfi_def_cfa_register 13
	@ sp needed
	pop	{r7, pc}
.L7:
	.align	2
.L6:
	.word	_edata
	.word	_sdata
	.word	_la_data
	.word	_ebss
	.word	_sbss
	.cfi_endproc
.LFE0:
	.size	Reset_Handler, .-Reset_Handler
.Letext0:
	.file 2 "d:\\sw_8\\arm_gcc_10.3\\10 2021.10\\arm-none-eabi\\include\\machine\\_default_types.h"
	.file 3 "d:\\sw_8\\arm_gcc_10.3\\10 2021.10\\arm-none-eabi\\include\\sys\\_stdint.h"