
obj/button_blinky_02.elf:     file format elf32-littlearm


Disassembly of section .text:

08000000 <vectors>:
 8000000:	20020000 	andcs	r0, r2, r0
 8000004:	08000009 	stmdaeq	r0, {r0, r3}

08000008 <Reset_Handler>:
 8000008:	b480      	push	{r7}
 800000a:	b087      	sub	sp, #28
 800000c:	af00      	add	r7, sp, #0
 800000e:	4b19      	ldr	r3, [pc, #100]	; (8000074 <Reset_Handler+0x6c>)
 8000010:	617b      	str	r3, [r7, #20]
 8000012:	4b19      	ldr	r3, [pc, #100]	; (8000078 <Reset_Handler+0x70>)
 8000014:	613b      	str	r3, [r7, #16]
 8000016:	4b19      	ldr	r3, [pc, #100]	; (800007c <Reset_Handler+0x74>)
 8000018:	60fb      	str	r3, [r7, #12]
 800001a:	4b19      	ldr	r3, [pc, #100]	; (8000080 <Reset_Handler+0x78>)
 800001c:	60bb      	str	r3, [r7, #8]
 800001e:	4b19      	ldr	r3, [pc, #100]	; (8000084 <Reset_Handler+0x7c>)
 8000020:	607b      	str	r3, [r7, #4]
 8000022:	697b      	ldr	r3, [r7, #20]
 8000024:	681b      	ldr	r3, [r3, #0]
 8000026:	f043 0209 	orr.w	r2, r3, #9
 800002a:	697b      	ldr	r3, [r7, #20]
 800002c:	601a      	str	r2, [r3, #0]
 800002e:	693b      	ldr	r3, [r7, #16]
 8000030:	681b      	ldr	r3, [r3, #0]
 8000032:	f023 0203 	bic.w	r2, r3, #3
 8000036:	693b      	ldr	r3, [r7, #16]
 8000038:	601a      	str	r2, [r3, #0]
 800003a:	68bb      	ldr	r3, [r7, #8]
 800003c:	681b      	ldr	r3, [r3, #0]
 800003e:	f023 5340 	bic.w	r3, r3, #805306368	; 0x30000000
 8000042:	f043 5280 	orr.w	r2, r3, #268435456	; 0x10000000
 8000046:	68bb      	ldr	r3, [r7, #8]
 8000048:	601a      	str	r2, [r3, #0]
 800004a:	68fb      	ldr	r3, [r7, #12]
 800004c:	681b      	ldr	r3, [r3, #0]
 800004e:	f003 0301 	and.w	r3, r3, #1
 8000052:	2b00      	cmp	r3, #0
 8000054:	d006      	beq.n	8000064 <Reset_Handler+0x5c>
 8000056:	687b      	ldr	r3, [r7, #4]
 8000058:	681b      	ldr	r3, [r3, #0]
 800005a:	f443 4280 	orr.w	r2, r3, #16384	; 0x4000
 800005e:	687b      	ldr	r3, [r7, #4]
 8000060:	601a      	str	r2, [r3, #0]
 8000062:	e7f2      	b.n	800004a <Reset_Handler+0x42>
 8000064:	687b      	ldr	r3, [r7, #4]
 8000066:	681b      	ldr	r3, [r3, #0]
 8000068:	f423 4280 	bic.w	r2, r3, #16384	; 0x4000
 800006c:	687b      	ldr	r3, [r7, #4]
 800006e:	601a      	str	r2, [r3, #0]
 8000070:	e7eb      	b.n	800004a <Reset_Handler+0x42>
 8000072:	bf00      	nop
 8000074:	40023830 	andmi	r3, r2, r0, lsr r8
 8000078:	40020000 	andmi	r0, r2, r0
 800007c:	40020010 	andmi	r0, r2, r0, lsl r0
 8000080:	40020c00 	andmi	r0, r2, r0, lsl #24
 8000084:	40020c14 	andmi	r0, r2, r4, lsl ip
