
obj/main.o:     file format elf32-littlearm


Disassembly of section .text:

00000000 <Reset_Handler>:
   0:	b480      	push	{r7}
   2:	b087      	sub	sp, #28
   4:	af00      	add	r7, sp, #0
   6:	4b19      	ldr	r3, [pc, #100]	; (6c <Reset_Handler+0x6c>)
   8:	617b      	str	r3, [r7, #20]
   a:	4b19      	ldr	r3, [pc, #100]	; (70 <Reset_Handler+0x70>)
   c:	613b      	str	r3, [r7, #16]
   e:	4b19      	ldr	r3, [pc, #100]	; (74 <Reset_Handler+0x74>)
  10:	60fb      	str	r3, [r7, #12]
  12:	4b19      	ldr	r3, [pc, #100]	; (78 <Reset_Handler+0x78>)
  14:	60bb      	str	r3, [r7, #8]
  16:	4b19      	ldr	r3, [pc, #100]	; (7c <Reset_Handler+0x7c>)
  18:	607b      	str	r3, [r7, #4]
  1a:	697b      	ldr	r3, [r7, #20]
  1c:	681b      	ldr	r3, [r3, #0]
  1e:	f043 0209 	orr.w	r2, r3, #9
  22:	697b      	ldr	r3, [r7, #20]
  24:	601a      	str	r2, [r3, #0]
  26:	693b      	ldr	r3, [r7, #16]
  28:	681b      	ldr	r3, [r3, #0]
  2a:	f023 0203 	bic.w	r2, r3, #3
  2e:	693b      	ldr	r3, [r7, #16]
  30:	601a      	str	r2, [r3, #0]
  32:	68bb      	ldr	r3, [r7, #8]
  34:	681b      	ldr	r3, [r3, #0]
  36:	f023 5340 	bic.w	r3, r3, #805306368	; 0x30000000
  3a:	f043 5280 	orr.w	r2, r3, #268435456	; 0x10000000
  3e:	68bb      	ldr	r3, [r7, #8]
  40:	601a      	str	r2, [r3, #0]
  42:	68fb      	ldr	r3, [r7, #12]
  44:	681b      	ldr	r3, [r3, #0]
  46:	f003 0301 	and.w	r3, r3, #1
  4a:	2b00      	cmp	r3, #0
  4c:	d006      	beq.n	5c <Reset_Handler+0x5c>
  4e:	687b      	ldr	r3, [r7, #4]
  50:	681b      	ldr	r3, [r3, #0]
  52:	f443 4280 	orr.w	r2, r3, #16384	; 0x4000
  56:	687b      	ldr	r3, [r7, #4]
  58:	601a      	str	r2, [r3, #0]
  5a:	e7f2      	b.n	42 <Reset_Handler+0x42>
  5c:	687b      	ldr	r3, [r7, #4]
  5e:	681b      	ldr	r3, [r3, #0]
  60:	f423 4280 	bic.w	r2, r3, #16384	; 0x4000
  64:	687b      	ldr	r3, [r7, #4]
  66:	601a      	str	r2, [r3, #0]
  68:	e7eb      	b.n	42 <Reset_Handler+0x42>
  6a:	bf00      	nop
  6c:	40023830 	andmi	r3, r2, r0, lsr r8
  70:	40020000 	andmi	r0, r2, r0
  74:	40020010 	andmi	r0, r2, r0, lsl r0
  78:	40020c00 	andmi	r0, r2, r0, lsl #24
  7c:	40020c14 	andmi	r0, r2, r4, lsl ip

Disassembly of section .isr_vector:

00000000 <vectors>:
   0:	20020000 	andcs	r0, r2, r0
   4:	00000000 	andeq	r0, r0, r0
			4: R_ARM_ABS32	Reset_Handler
