
obj/timer_blinky_19.elf:     file format elf32-littlearm


Disassembly of section .text:

08000004 <vectors>:
 8000004:	08000009 	stmdaeq	r0, {r0, r3}

08000008 <Reset_Handler>:
 8000008:	4c13      	ldr	r4, [pc, #76]	; (8000058 <Reset_Handler+0x50>)
 800000a:	6825      	ldr	r5, [r4, #0]
 800000c:	f045 0308 	orr.w	r3, r5, #8
 8000010:	6023      	str	r3, [r4, #0]
 8000012:	3410      	adds	r4, #16
 8000014:	6825      	ldr	r5, [r4, #0]
 8000016:	f045 0304 	orr.w	r3, r5, #4
 800001a:	6023      	str	r3, [r4, #0]
 800001c:	4c0f      	ldr	r4, [pc, #60]	; (800005c <Reset_Handler+0x54>)
 800001e:	f04f 5300 	mov.w	r3, #536870912	; 0x20000000
 8000022:	6023      	str	r3, [r4, #0]
 8000024:	3424      	adds	r4, #36	; 0x24
 8000026:	f04f 7300 	mov.w	r3, #33554432	; 0x2000000
 800002a:	6023      	str	r3, [r4, #0]
 800002c:	4c0c      	ldr	r4, [pc, #48]	; (8000060 <Reset_Handler+0x58>)
 800002e:	2360      	movs	r3, #96	; 0x60
 8000030:	6023      	str	r3, [r4, #0]
 8000032:	340c      	adds	r4, #12
 8000034:	f44f 657a 	mov.w	r5, #4000	; 0xfa0
 8000038:	6025      	str	r5, [r4, #0]
 800003a:	3404      	adds	r4, #4
 800003c:	6025      	str	r5, [r4, #0]
 800003e:	086b      	lsrs	r3, r5, #1
 8000040:	461d      	mov	r5, r3
 8000042:	3410      	adds	r4, #16
 8000044:	6025      	str	r5, [r4, #0]
 8000046:	3c1c      	subs	r4, #28
 8000048:	f44f 7380 	mov.w	r3, #256	; 0x100
 800004c:	6023      	str	r3, [r4, #0]
 800004e:	3c20      	subs	r4, #32
 8000050:	2301      	movs	r3, #1
 8000052:	6023      	str	r3, [r4, #0]
 8000054:	e7fe      	b.n	8000054 <Reset_Handler+0x4c>
 8000056:	bf00      	nop
 8000058:	40023830 	andmi	r3, r2, r0, lsr r8
 800005c:	40020c00 	andmi	r0, r2, r0, lsl #24
 8000060:	4000081c 	andmi	r0, r0, ip, lsl r8
