
obj/timer_blinky_18.elf:     file format elf32-littlearm


Disassembly of section .text:

08000004 <vectors>:
 8000004:	08000009 	stmdaeq	r0, {r0, r3}

08000008 <Reset_Handler>:
 8000008:	4c17      	ldr	r4, [pc, #92]	; (8000068 <Reset_Handler+0x60>)
 800000a:	6823      	ldr	r3, [r4, #0]
 800000c:	f043 0308 	orr.w	r3, r3, #8
 8000010:	6023      	str	r3, [r4, #0]
 8000012:	f104 0310 	add.w	r3, r4, #16
 8000016:	681a      	ldr	r2, [r3, #0]
 8000018:	f104 0310 	add.w	r3, r4, #16
 800001c:	f042 0204 	orr.w	r2, r2, #4
 8000020:	601a      	str	r2, [r3, #0]
 8000022:	4c12      	ldr	r4, [pc, #72]	; (800006c <Reset_Handler+0x64>)
 8000024:	f04f 5300 	mov.w	r3, #536870912	; 0x20000000
 8000028:	6023      	str	r3, [r4, #0]
 800002a:	f104 0324 	add.w	r3, r4, #36	; 0x24
 800002e:	f04f 7200 	mov.w	r2, #33554432	; 0x2000000
 8000032:	601a      	str	r2, [r3, #0]
 8000034:	4c0e      	ldr	r4, [pc, #56]	; (8000070 <Reset_Handler+0x68>)
 8000036:	f44f 657a 	mov.w	r5, #4000	; 0xfa0
 800003a:	f104 031c 	add.w	r3, r4, #28
 800003e:	2260      	movs	r2, #96	; 0x60
 8000040:	601a      	str	r2, [r3, #0]
 8000042:	f104 0328 	add.w	r3, r4, #40	; 0x28
 8000046:	601d      	str	r5, [r3, #0]
 8000048:	f104 032c 	add.w	r3, r4, #44	; 0x2c
 800004c:	601d      	str	r5, [r3, #0]
 800004e:	086b      	lsrs	r3, r5, #1
 8000050:	461d      	mov	r5, r3
 8000052:	f104 033c 	add.w	r3, r4, #60	; 0x3c
 8000056:	601d      	str	r5, [r3, #0]
 8000058:	f104 0320 	add.w	r3, r4, #32
 800005c:	f44f 7280 	mov.w	r2, #256	; 0x100
 8000060:	601a      	str	r2, [r3, #0]
 8000062:	2301      	movs	r3, #1
 8000064:	6023      	str	r3, [r4, #0]
 8000066:	e7fe      	b.n	8000066 <Reset_Handler+0x5e>
 8000068:	40023830 	andmi	r3, r2, r0, lsr r8
 800006c:	40020c00 	andmi	r0, r2, r0, lsl #24
 8000070:	40000800 	andmi	r0, r0, r0, lsl #16
