
obj/button_blinky_01.elf:     file format elf32-littlearm


Disassembly of section .text:

08000000 <vectors>:
 8000000:	20020000 	andcs	r0, r2, r0
 8000004:	08000089 	stmdaeq	r0, {r0, r3, r7}

08000008 <main>:
 8000008:	b480      	push	{r7}
 800000a:	b087      	sub	sp, #28
 800000c:	af00      	add	r7, sp, #0
 800000e:	4b19      	ldr	r3, [pc, #100]	; (8000074 <main+0x6c>)
 8000010:	617b      	str	r3, [r7, #20]
 8000012:	4b19      	ldr	r3, [pc, #100]	; (8000078 <main+0x70>)
 8000014:	613b      	str	r3, [r7, #16]
 8000016:	4b19      	ldr	r3, [pc, #100]	; (800007c <main+0x74>)
 8000018:	60fb      	str	r3, [r7, #12]
 800001a:	4b19      	ldr	r3, [pc, #100]	; (8000080 <main+0x78>)
 800001c:	60bb      	str	r3, [r7, #8]
 800001e:	4b19      	ldr	r3, [pc, #100]	; (8000084 <main+0x7c>)
 8000020:	607b      	str	r3, [r7, #4]
 8000022:	697b      	ldr	r3, [r7, #20]
 8000024:	681b      	ldr	r3, [r3, #0]
 8000026:	f043 0209 	orr.w	r2, r3, #9
 800002a:	697b      	ldr	r3, [r7, #20]
 800002c:	601a      	str	r2, [r3, #0]
 800002e:	693b      	ldr	r3, [r7, #16]
 8000030:	681b      	ldr	r3, [r3, #0]
 8000032:	f023 0203 	bic.w	r2, r3, #3
 8000036:	693b      	ldr	r3, [r7, #16]
 8000038:	601a      	str	r2, [r3, #0]
 800003a:	68bb      	ldr	r3, [r7, #8]
 800003c:	681b      	ldr	r3, [r3, #0]
 800003e:	f023 5340 	bic.w	r3, r3, #805306368	; 0x30000000
 8000042:	f043 5280 	orr.w	r2, r3, #268435456	; 0x10000000
 8000046:	68bb      	ldr	r3, [r7, #8]
 8000048:	601a      	str	r2, [r3, #0]
 800004a:	68fb      	ldr	r3, [r7, #12]
 800004c:	681b      	ldr	r3, [r3, #0]
 800004e:	f003 0301 	and.w	r3, r3, #1
 8000052:	2b00      	cmp	r3, #0
 8000054:	d006      	beq.n	8000064 <main+0x5c>
 8000056:	687b      	ldr	r3, [r7, #4]
 8000058:	681b      	ldr	r3, [r3, #0]
 800005a:	f443 4280 	orr.w	r2, r3, #16384	; 0x4000
 800005e:	687b      	ldr	r3, [r7, #4]
 8000060:	601a      	str	r2, [r3, #0]
 8000062:	e7f2      	b.n	800004a <main+0x42>
 8000064:	687b      	ldr	r3, [r7, #4]
 8000066:	681b      	ldr	r3, [r3, #0]
 8000068:	f423 4280 	bic.w	r2, r3, #16384	; 0x4000
 800006c:	687b      	ldr	r3, [r7, #4]
 800006e:	601a      	str	r2, [r3, #0]
 8000070:	e7eb      	b.n	800004a <main+0x42>
 8000072:	bf00      	nop
 8000074:	40023830 	andmi	r3, r2, r0, lsr r8
 8000078:	40020000 	andmi	r0, r2, r0
 800007c:	40020010 	andmi	r0, r2, r0, lsl r0
 8000080:	40020c00 	andmi	r0, r2, r0, lsl #24
 8000084:	40020c14 	andmi	r0, r2, r4, lsl ip

08000088 <Reset_Handler>:
 8000088:	b580      	push	{r7, lr}
 800008a:	b086      	sub	sp, #24
 800008c:	af00      	add	r7, sp, #0
 800008e:	4a1a      	ldr	r2, [pc, #104]	; (80000f8 <Reset_Handler+0x70>)
 8000090:	4b1a      	ldr	r3, [pc, #104]	; (80000fc <Reset_Handler+0x74>)
 8000092:	1ad3      	subs	r3, r2, r3
 8000094:	607b      	str	r3, [r7, #4]
 8000096:	4b19      	ldr	r3, [pc, #100]	; (80000fc <Reset_Handler+0x74>)
 8000098:	617b      	str	r3, [r7, #20]
 800009a:	4b19      	ldr	r3, [pc, #100]	; (8000100 <Reset_Handler+0x78>)
 800009c:	613b      	str	r3, [r7, #16]
 800009e:	2300      	movs	r3, #0
 80000a0:	60fb      	str	r3, [r7, #12]
 80000a2:	e00a      	b.n	80000ba <Reset_Handler+0x32>
 80000a4:	693a      	ldr	r2, [r7, #16]
 80000a6:	1c53      	adds	r3, r2, #1
 80000a8:	613b      	str	r3, [r7, #16]
 80000aa:	697b      	ldr	r3, [r7, #20]
 80000ac:	1c59      	adds	r1, r3, #1
 80000ae:	6179      	str	r1, [r7, #20]
 80000b0:	7812      	ldrb	r2, [r2, #0]
 80000b2:	701a      	strb	r2, [r3, #0]
 80000b4:	68fb      	ldr	r3, [r7, #12]
 80000b6:	3301      	adds	r3, #1
 80000b8:	60fb      	str	r3, [r7, #12]
 80000ba:	68fa      	ldr	r2, [r7, #12]
 80000bc:	687b      	ldr	r3, [r7, #4]
 80000be:	429a      	cmp	r2, r3
 80000c0:	d3f0      	bcc.n	80000a4 <Reset_Handler+0x1c>
 80000c2:	4a10      	ldr	r2, [pc, #64]	; (8000104 <Reset_Handler+0x7c>)
 80000c4:	4b10      	ldr	r3, [pc, #64]	; (8000108 <Reset_Handler+0x80>)
 80000c6:	1ad3      	subs	r3, r2, r3
 80000c8:	607b      	str	r3, [r7, #4]
 80000ca:	4b0f      	ldr	r3, [pc, #60]	; (8000108 <Reset_Handler+0x80>)
 80000cc:	617b      	str	r3, [r7, #20]
 80000ce:	2300      	movs	r3, #0
 80000d0:	60bb      	str	r3, [r7, #8]
 80000d2:	e007      	b.n	80000e4 <Reset_Handler+0x5c>
 80000d4:	697b      	ldr	r3, [r7, #20]
 80000d6:	1c5a      	adds	r2, r3, #1
 80000d8:	617a      	str	r2, [r7, #20]
 80000da:	2200      	movs	r2, #0
 80000dc:	701a      	strb	r2, [r3, #0]
 80000de:	68bb      	ldr	r3, [r7, #8]
 80000e0:	3301      	adds	r3, #1
 80000e2:	60bb      	str	r3, [r7, #8]
 80000e4:	68ba      	ldr	r2, [r7, #8]
 80000e6:	687b      	ldr	r3, [r7, #4]
 80000e8:	429a      	cmp	r2, r3
 80000ea:	d3f3      	bcc.n	80000d4 <Reset_Handler+0x4c>
 80000ec:	f7ff ff8c 	bl	8000008 <main>
 80000f0:	bf00      	nop
 80000f2:	3718      	adds	r7, #24
 80000f4:	46bd      	mov	sp, r7
 80000f6:	bd80      	pop	{r7, pc}
 80000f8:	20000000 	andcs	r0, r0, r0
 80000fc:	20000000 	andcs	r0, r0, r0
 8000100:	0800010c 	stmdaeq	r0, {r2, r3, r8}
 8000104:	20000000 	andcs	r0, r0, r0
 8000108:	20000000 	andcs	r0, r0, r0
