
obj/delay_blinky_07.elf:     file format elf32-littlearm


Disassembly of section .text:

08000000 <vectors>:
 8000000:	20020000 	andcs	r0, r2, r0
 8000004:	0800006d 	stmdaeq	r0, {r0, r2, r3, r5, r6}

08000008 <main>:
 8000008:	b480      	push	{r7}
 800000a:	b085      	sub	sp, #20
 800000c:	af00      	add	r7, sp, #0
 800000e:	4b13      	ldr	r3, [pc, #76]	; (800005c <main+0x54>)
 8000010:	60bb      	str	r3, [r7, #8]
 8000012:	4b13      	ldr	r3, [pc, #76]	; (8000060 <main+0x58>)
 8000014:	607b      	str	r3, [r7, #4]
 8000016:	4b13      	ldr	r3, [pc, #76]	; (8000064 <main+0x5c>)
 8000018:	603b      	str	r3, [r7, #0]
 800001a:	2300      	movs	r3, #0
 800001c:	60fb      	str	r3, [r7, #12]
 800001e:	68bb      	ldr	r3, [r7, #8]
 8000020:	681b      	ldr	r3, [r3, #0]
 8000022:	f043 0208 	orr.w	r2, r3, #8
 8000026:	68bb      	ldr	r3, [r7, #8]
 8000028:	601a      	str	r2, [r3, #0]
 800002a:	687b      	ldr	r3, [r7, #4]
 800002c:	681b      	ldr	r3, [r3, #0]
 800002e:	f023 5340 	bic.w	r3, r3, #805306368	; 0x30000000
 8000032:	f043 5280 	orr.w	r2, r3, #268435456	; 0x10000000
 8000036:	687b      	ldr	r3, [r7, #4]
 8000038:	601a      	str	r2, [r3, #0]
 800003a:	bf00      	nop
 800003c:	68fb      	ldr	r3, [r7, #12]
 800003e:	1c5a      	adds	r2, r3, #1
 8000040:	60fa      	str	r2, [r7, #12]
 8000042:	4a09      	ldr	r2, [pc, #36]	; (8000068 <main+0x60>)
 8000044:	4293      	cmp	r3, r2
 8000046:	d9f9      	bls.n	800003c <main+0x34>
 8000048:	2300      	movs	r3, #0
 800004a:	60fb      	str	r3, [r7, #12]
 800004c:	683b      	ldr	r3, [r7, #0]
 800004e:	681b      	ldr	r3, [r3, #0]
 8000050:	f483 4280 	eor.w	r2, r3, #16384	; 0x4000
 8000054:	683b      	ldr	r3, [r7, #0]
 8000056:	601a      	str	r2, [r3, #0]
 8000058:	e7ef      	b.n	800003a <main+0x32>
 800005a:	bf00      	nop
 800005c:	40023830 	andmi	r3, r2, r0, lsr r8
 8000060:	40020c00 	andmi	r0, r2, r0, lsl #24
 8000064:	40020c14 	andmi	r0, r2, r4, lsl ip
 8000068:	000aae5f 	andeq	sl, sl, pc, asr lr

0800006c <Reset_Handler>:
 800006c:	b580      	push	{r7, lr}
 800006e:	b086      	sub	sp, #24
 8000070:	af00      	add	r7, sp, #0
 8000072:	4a1a      	ldr	r2, [pc, #104]	; (80000dc <Reset_Handler+0x70>)
 8000074:	4b1a      	ldr	r3, [pc, #104]	; (80000e0 <Reset_Handler+0x74>)
 8000076:	1ad3      	subs	r3, r2, r3
 8000078:	607b      	str	r3, [r7, #4]
 800007a:	4b19      	ldr	r3, [pc, #100]	; (80000e0 <Reset_Handler+0x74>)
 800007c:	617b      	str	r3, [r7, #20]
 800007e:	4b19      	ldr	r3, [pc, #100]	; (80000e4 <Reset_Handler+0x78>)
 8000080:	613b      	str	r3, [r7, #16]
 8000082:	2300      	movs	r3, #0
 8000084:	60fb      	str	r3, [r7, #12]
 8000086:	e00a      	b.n	800009e <Reset_Handler+0x32>
 8000088:	693a      	ldr	r2, [r7, #16]
 800008a:	1c53      	adds	r3, r2, #1
 800008c:	613b      	str	r3, [r7, #16]
 800008e:	697b      	ldr	r3, [r7, #20]
 8000090:	1c59      	adds	r1, r3, #1
 8000092:	6179      	str	r1, [r7, #20]
 8000094:	7812      	ldrb	r2, [r2, #0]
 8000096:	701a      	strb	r2, [r3, #0]
 8000098:	68fb      	ldr	r3, [r7, #12]
 800009a:	3301      	adds	r3, #1
 800009c:	60fb      	str	r3, [r7, #12]
 800009e:	68fa      	ldr	r2, [r7, #12]
 80000a0:	687b      	ldr	r3, [r7, #4]
 80000a2:	429a      	cmp	r2, r3
 80000a4:	d3f0      	bcc.n	8000088 <Reset_Handler+0x1c>
 80000a6:	4a10      	ldr	r2, [pc, #64]	; (80000e8 <Reset_Handler+0x7c>)
 80000a8:	4b10      	ldr	r3, [pc, #64]	; (80000ec <Reset_Handler+0x80>)
 80000aa:	1ad3      	subs	r3, r2, r3
 80000ac:	607b      	str	r3, [r7, #4]
 80000ae:	4b0f      	ldr	r3, [pc, #60]	; (80000ec <Reset_Handler+0x80>)
 80000b0:	617b      	str	r3, [r7, #20]
 80000b2:	2300      	movs	r3, #0
 80000b4:	60bb      	str	r3, [r7, #8]
 80000b6:	e007      	b.n	80000c8 <Reset_Handler+0x5c>
 80000b8:	697b      	ldr	r3, [r7, #20]
 80000ba:	1c5a      	adds	r2, r3, #1
 80000bc:	617a      	str	r2, [r7, #20]
 80000be:	2200      	movs	r2, #0
 80000c0:	701a      	strb	r2, [r3, #0]
 80000c2:	68bb      	ldr	r3, [r7, #8]
 80000c4:	3301      	adds	r3, #1
 80000c6:	60bb      	str	r3, [r7, #8]
 80000c8:	68ba      	ldr	r2, [r7, #8]
 80000ca:	687b      	ldr	r3, [r7, #4]
 80000cc:	429a      	cmp	r2, r3
 80000ce:	d3f3      	bcc.n	80000b8 <Reset_Handler+0x4c>
 80000d0:	f7ff ff9a 	bl	8000008 <main>
 80000d4:	bf00      	nop
 80000d6:	3718      	adds	r7, #24
 80000d8:	46bd      	mov	sp, r7
 80000da:	bd80      	pop	{r7, pc}
 80000dc:	20000000 	andcs	r0, r0, r0
 80000e0:	20000000 	andcs	r0, r0, r0
 80000e4:	080000f0 	stmdaeq	r0, {r4, r5, r6, r7}
 80000e8:	20000000 	andcs	r0, r0, r0
 80000ec:	20000000 	andcs	r0, r0, r0
