
obj/main.o:     file format elf32-littlearm


Disassembly of section .text:

00000000 <main>:
   0:	b480      	push	{r7}
   2:	b085      	sub	sp, #20
   4:	af00      	add	r7, sp, #0
   6:	4b13      	ldr	r3, [pc, #76]	; (54 <main+0x54>)
   8:	60bb      	str	r3, [r7, #8]
   a:	4b13      	ldr	r3, [pc, #76]	; (58 <main+0x58>)
   c:	607b      	str	r3, [r7, #4]
   e:	4b13      	ldr	r3, [pc, #76]	; (5c <main+0x5c>)
  10:	603b      	str	r3, [r7, #0]
  12:	2300      	movs	r3, #0
  14:	60fb      	str	r3, [r7, #12]
  16:	68bb      	ldr	r3, [r7, #8]
  18:	681b      	ldr	r3, [r3, #0]
  1a:	f043 0208 	orr.w	r2, r3, #8
  1e:	68bb      	ldr	r3, [r7, #8]
  20:	601a      	str	r2, [r3, #0]
  22:	687b      	ldr	r3, [r7, #4]
  24:	681b      	ldr	r3, [r3, #0]
  26:	f023 5340 	bic.w	r3, r3, #805306368	; 0x30000000
  2a:	f043 5280 	orr.w	r2, r3, #268435456	; 0x10000000
  2e:	687b      	ldr	r3, [r7, #4]
  30:	601a      	str	r2, [r3, #0]
  32:	bf00      	nop
  34:	68fb      	ldr	r3, [r7, #12]
  36:	1c5a      	adds	r2, r3, #1
  38:	60fa      	str	r2, [r7, #12]
  3a:	4a09      	ldr	r2, [pc, #36]	; (60 <main+0x60>)
  3c:	4293      	cmp	r3, r2
  3e:	d9f9      	bls.n	34 <main+0x34>
  40:	2300      	movs	r3, #0
  42:	60fb      	str	r3, [r7, #12]
  44:	683b      	ldr	r3, [r7, #0]
  46:	681b      	ldr	r3, [r3, #0]
  48:	f483 4280 	eor.w	r2, r3, #16384	; 0x4000
  4c:	683b      	ldr	r3, [r7, #0]
  4e:	601a      	str	r2, [r3, #0]
  50:	e7ef      	b.n	32 <main+0x32>
  52:	bf00      	nop
  54:	40023830 	andmi	r3, r2, r0, lsr r8
  58:	40020c00 	andmi	r0, r2, r0, lsl #24
  5c:	40020c14 	andmi	r0, r2, r4, lsl ip
  60:	000aae5f 	andeq	sl, sl, pc, asr lr
